target datalayout = "e-m:e-p270:32:32-p271:32:32-p272:64:64-i64:64-i128:128-f80:128-n8:16:32:64-S128"
target triple = "x86_64-pc-linux-gnu"

%struct.WalSummarizerData = type { i8, i32, i64, i8, i32, i64, %struct.ConditionVariable }
%struct.ConditionVariable = type { i8, %struct.proclist_head }
%struct.proclist_head = type { i32, i32 }
%union.LWLockPadded = type { %struct.LWLock, [112 x i8] }
%struct.LWLock = type { i16, %struct.pg_atomic_uint32, %struct.proclist_head }
%struct.pg_atomic_uint32 = type { i32 }

@summarize_wal = dso_local global i8 0, align 1
@WalSummarizerCtl = internal global ptr null, align 8
@.str.2 = private unnamed_addr constant [16 x i8] c"walsummarizer.c\00", align 1
@MainLWLockArray = external global ptr, align 8
@InterruptPending = external global i32, align 4
@.str.6 = private unnamed_addr constant [37 x i8] c"WAL summarization is not progressing\00", align 1
@.str.7 = private unnamed_addr constant [90 x i8] c"Summarization is needed through %X/%X, but is stuck at %X/%X on disk and %X/%X in memory.\00", align 1
@__func__.WaitForWalSummarization = private unnamed_addr constant [24 x i8] c"WaitForWalSummarization\00", align 1
@.str.8 = private unnamed_addr constant [67 x i8] c"still waiting for WAL summarization through %X/%X after %ld second\00", align 1
@.str.9 = private unnamed_addr constant [68 x i8] c"still waiting for WAL summarization through %X/%X after %ld seconds\00", align 1
@.str.10 = private unnamed_addr constant [61 x i8] c"Summarization has reached %X/%X on disk and %X/%X in memory.\00", align 1

; Function Attrs: nounwind uwtable
define dso_local void @WaitForWalSummarization(i64 noundef %0) #0 {
  %2 = alloca i64, align 8
  %3 = alloca i64, align 8
  %4 = alloca i64, align 8
  %5 = alloca i64, align 8
  %6 = alloca i64, align 8
  %7 = alloca i32, align 4
  %8 = alloca i64, align 8
  %9 = alloca i64, align 8
  %10 = alloca i64, align 8
  %11 = alloca i32, align 4
  %12 = alloca i64, align 8
  %13 = alloca i32, align 4
  %14 = alloca i32, align 4
  %15 = alloca i32, align 4
  %16 = alloca i32, align 4
  %17 = alloca i32, align 4
  %18 = alloca i32, align 4
  store i64 %0, ptr %2, align 8
  call void @llvm.lifetime.start.p0(i64 8, ptr %3) #12
  call void @llvm.lifetime.start.p0(i64 8, ptr %4) #12
  call void @llvm.lifetime.start.p0(i64 8, ptr %5) #12
  call void @llvm.lifetime.start.p0(i64 8, ptr %6) #12
  store i64 0, ptr %6, align 8
  call void @llvm.lifetime.start.p0(i64 4, ptr %7) #12
  store i32 0, ptr %7, align 4
  %19 = call i64 @GetCurrentTimestamp()
  store i64 %19, ptr %4, align 8
  store i64 %19, ptr %3, align 8
  br label %20

20:                                               ; preds = %167, %1
  br label %21

21:                                               ; preds = %20
  call void @llvm.lifetime.start.p0(i64 8, ptr %8) #12
  store i64 10000, ptr %8, align 8
  call void @llvm.lifetime.start.p0(i64 8, ptr %9) #12
  call void @llvm.lifetime.start.p0(i64 8, ptr %10) #12
  br label %22

22:                                               ; preds = %21
  %23 = load volatile i32, ptr @InterruptPending, align 4
  %24 = icmp ne i32 %23, 0
  %25 = zext i1 %24 to i32
  %26 = sext i32 %25 to i64
  %27 = call i64 @llvm.expect.i64(i64 %26, i64 0)
  %28 = icmp ne i64 %27, 0
  br i1 %28, label %29, label %30

29:                                               ; preds = %22
  call void @ProcessInterrupts()
  br label %30

30:                                               ; preds = %29, %22
  br label %31

31:                                               ; preds = %30
  br label %32

32:                                               ; preds = %31
  %33 = load i8, ptr @summarize_wal, align 1, !range !4, !noundef !5
  %34 = trunc i8 %33 to i1
  br i1 %34, label %36, label %35

35:                                               ; preds = %32
  store i32 1, ptr %11, align 4
  br label %165

36:                                               ; preds = %32
  %37 = load ptr, ptr @MainLWLockArray, align 8
  %38 = getelementptr inbounds %union.LWLockPadded, ptr %37, i64 49
  %39 = call zeroext i1 @LWLockAcquire(ptr noundef %38, i32 noundef 0)
  %40 = load ptr, ptr @WalSummarizerCtl, align 8
  %41 = getelementptr inbounds nuw %struct.WalSummarizerData, ptr %40, i32 0, i32 2
  %42 = load i64, ptr %41, align 8
  store i64 %42, ptr %9, align 8
  %43 = load ptr, ptr @WalSummarizerCtl, align 8
  %44 = getelementptr inbounds nuw %struct.WalSummarizerData, ptr %43, i32 0, i32 5
  %45 = load i64, ptr %44, align 8
  store i64 %45, ptr %10, align 8
  %46 = load ptr, ptr @MainLWLockArray, align 8
  %47 = getelementptr inbounds %union.LWLockPadded, ptr %46, i64 49
  call void @LWLockRelease(ptr noundef %47)
  %48 = load i64, ptr %9, align 8
  %49 = load i64, ptr %2, align 8
  %50 = icmp uge i64 %48, %49
  br i1 %50, label %51, label %52

51:                                               ; preds = %36
  store i32 3, ptr %11, align 4
  br label %165

52:                                               ; preds = %36
  %53 = call i64 @GetCurrentTimestamp()
  store i64 %53, ptr %5, align 8
  %54 = load i64, ptr %4, align 8
  %55 = load i64, ptr %5, align 8
  %56 = call i64 @TimestampDifferenceMilliseconds(i64 noundef %54, i64 noundef %55)
  %57 = load i64, ptr %8, align 8
  %58 = icmp sge i64 %56, %57
  br i1 %58, label %59, label %155

59:                                               ; preds = %52
  call void @llvm.lifetime.start.p0(i64 8, ptr %12) #12
  %60 = load i64, ptr %4, align 8
  %61 = load i64, ptr %8, align 8
  %62 = mul i64 %61, 1000
  %63 = add i64 %60, %62
  store i64 %63, ptr %4, align 8
  %64 = load i64, ptr %10, align 8
  %65 = load i64, ptr %6, align 8
  %66 = icmp ugt i64 %64, %65
  br i1 %66, label %67, label %69

67:                                               ; preds = %59
  %68 = load i64, ptr %10, align 8
  store i64 %68, ptr %6, align 8
  store i32 0, ptr %7, align 4
  br label %72

69:                                               ; preds = %59
  %70 = load i32, ptr %7, align 4
  %71 = add i32 %70, 1
  store i32 %71, ptr %7, align 4
  br label %72

72:                                               ; preds = %69, %67
  %73 = load i32, ptr %7, align 4
  %74 = icmp sge i32 %73, 6
  br i1 %74, label %75, label %112

75:                                               ; preds = %72
  br label %76

76:                                               ; preds = %75
  br i1 true, label %77, label %79

77:                                               ; preds = %76
  %78 = call zeroext i1 @errstart_cold(i32 noundef 21, ptr noundef null) #13
  br i1 %78, label %81, label %109

79:                                               ; preds = %76
  %80 = call zeroext i1 @errstart(i32 noundef 21, ptr noundef null)
  br i1 %80, label %81, label %109

81:                                               ; preds = %79, %77
  %82 = call i32 @errcode(i32 noundef 325)
  %83 = call i32 (ptr, ...) @errmsg(ptr noundef @.str.6)
  br label %84

84:                                               ; preds = %81
  br label %85

85:                                               ; preds = %84
  br label %86

86:                                               ; preds = %85
  store i32 1, ptr %13, align 4
  %87 = load i64, ptr %2, align 8
  %88 = lshr i64 %87, 32
  %89 = trunc i64 %88 to i32
  %90 = load i64, ptr %2, align 8
  %91 = trunc i64 %90 to i32
  br label %92

92:                                               ; preds = %86
  br label %93

93:                                               ; preds = %92
  br label %94

94:                                               ; preds = %93
  store i32 1, ptr %14, align 4
  %95 = load i64, ptr %9, align 8
  %96 = lshr i64 %95, 32
  %97 = trunc i64 %96 to i32
  %98 = load i64, ptr %9, align 8
  %99 = trunc i64 %98 to i32
  br label %100

100:                                              ; preds = %94
  br label %101

101:                                              ; preds = %100
  br label %102

102:                                              ; preds = %101
  store i32 1, ptr %15, align 4
  %103 = load i64, ptr %10, align 8
  %104 = lshr i64 %103, 32
  %105 = trunc i64 %104 to i32
  %106 = load i64, ptr %10, align 8
  %107 = trunc i64 %106 to i32
  %108 = call i32 (ptr, ...) @errdetail(ptr noundef @.str.7, i32 noundef %89, i32 noundef %91, i32 noundef %97, i32 noundef %99, i32 noundef %105, i32 noundef %107)
  call void @errfinish(ptr noundef @.str.2, i32 noundef 744, ptr noundef @__func__.WaitForWalSummarization)
  br label %109

109:                                              ; preds = %102, %79, %77
  unreachable

110:                                              ; No predecessors!
  br label %111

111:                                              ; preds = %110
  br label %112

112:                                              ; preds = %111, %72
  %113 = load i64, ptr %3, align 8
  %114 = load i64, ptr %5, align 8
  %115 = call i64 @TimestampDifferenceMilliseconds(i64 noundef %113, i64 noundef %114)
  %116 = sdiv i64 %115, 1000
  store i64 %116, ptr %12, align 8
  br label %117

117:                                              ; preds = %112
  br i1 false, label %118, label %120

118:                                              ; preds = %117
  %119 = call zeroext i1 @errstart_cold(i32 noundef 19, ptr noundef null) #13
  br i1 %119, label %122, label %152

120:                                              ; preds = %117
  %121 = call zeroext i1 @errstart(i32 noundef 19, ptr noundef null)
  br i1 %121, label %122, label %152

122:                                              ; preds = %120, %118
  %123 = call i32 @errcode(i32 noundef 325)
  %124 = load i64, ptr %12, align 8
  br label %125

125:                                              ; preds = %122
  br label %126

126:                                              ; preds = %125
  br label %127

127:                                              ; preds = %126
  store i32 1, ptr %16, align 4
  %128 = load i64, ptr %2, align 8
  %129 = lshr i64 %128, 32
  %130 = trunc i64 %129 to i32
  %131 = load i64, ptr %2, align 8
  %132 = trunc i64 %131 to i32
  %133 = load i64, ptr %12, align 8
  %134 = call i32 (ptr, ptr, i64, ...) @errmsg_plural(ptr noundef @.str.8, ptr noundef @.str.9, i64 noundef %124, i32 noundef %130, i32 noundef %132, i64 noundef %133)
  br label %135

135:                                              ; preds = %127
  br label %136

136:                                              ; preds = %135
  br label %137

137:                                              ; preds = %136
  store i32 1, ptr %17, align 4
  %138 = load i64, ptr %9, align 8
  %139 = lshr i64 %138, 32
  %140 = trunc i64 %139 to i32
  %141 = load i64, ptr %9, align 8
  %142 = trunc i64 %141 to i32
  br label %143

143:                                              ; preds = %137
  br label %144

144:                                              ; preds = %143
  br label %145

145:                                              ; preds = %144
  store i32 1, ptr %18, align 4
  %146 = load i64, ptr %10, align 8
  %147 = lshr i64 %146, 32
  %148 = trunc i64 %147 to i32
  %149 = load i64, ptr %10, align 8
  %150 = trunc i64 %149 to i32
  %151 = call i32 (ptr, ...) @errdetail(ptr noundef @.str.10, i32 noundef %140, i32 noundef %142, i32 noundef %148, i32 noundef %150)
  call void @errfinish(ptr noundef @.str.2, i32 noundef 762, ptr noundef @__func__.WaitForWalSummarization)
  br label %152

152:                                              ; preds = %145, %120, %118
  br label %153

153:                                              ; preds = %152
  br label %154

154:                                              ; preds = %153
  call void @llvm.lifetime.end.p0(i64 8, ptr %12) #12
  br label %155

155:                                              ; preds = %154, %52
  %156 = load i64, ptr %4, align 8
  %157 = load i64, ptr %5, align 8
  %158 = call i64 @TimestampDifferenceMilliseconds(i64 noundef %156, i64 noundef %157)
  %159 = load i64, ptr %8, align 8
  %160 = sub i64 %159, %158
  store i64 %160, ptr %8, align 8
  %161 = load ptr, ptr @WalSummarizerCtl, align 8
  %162 = getelementptr inbounds nuw %struct.WalSummarizerData, ptr %161, i32 0, i32 6
  %163 = load i64, ptr %8, align 8
  %164 = call zeroext i1 @ConditionVariableTimedSleep(ptr noundef %162, i64 noundef %163, i32 noundef 134217783)
  store i32 0, ptr %11, align 4
  br label %165

165:                                              ; preds = %155, %51, %35
  call void @llvm.lifetime.end.p0(i64 8, ptr %10) #12
  call void @llvm.lifetime.end.p0(i64 8, ptr %9) #12
  call void @llvm.lifetime.end.p0(i64 8, ptr %8) #12
  %166 = load i32, ptr %11, align 4
  switch i32 %166, label %170 [
    i32 0, label %167
    i32 3, label %168
  ]

167:                                              ; preds = %165
  br label %20

168:                                              ; preds = %165
  %169 = call zeroext i1 @ConditionVariableCancelSleep()
  store i32 0, ptr %11, align 4
  br label %170

170:                                              ; preds = %168, %165
  call void @llvm.lifetime.end.p0(i64 4, ptr %7) #12
  call void @llvm.lifetime.end.p0(i64 8, ptr %6) #12
  call void @llvm.lifetime.end.p0(i64 8, ptr %5) #12
  call void @llvm.lifetime.end.p0(i64 8, ptr %4) #12
  call void @llvm.lifetime.end.p0(i64 8, ptr %3) #12
  %171 = load i32, ptr %11, align 4
  switch i32 %171, label %173 [
    i32 0, label %172
    i32 1, label %172
  ]

172:                                              ; preds = %170, %170
  ret void

173:                                              ; preds = %170
  unreachable
}