; Function Attrs: nounwind uwtable
define dso_local void @WaitForWalSummarization(i64 noundef %0) local_unnamed_addr #1 {
  %2 = tail call i64 @GetCurrentTimestamp() #11
  %3 = lshr i64 %0, 32
  %4 = trunc nuw i64 %3 to i32
  %5 = trunc i64 %0 to i32
  br label %6

6:                                                ; preds = %57, %1
  %.036 = phi i32 [ 0, %1 ], [ %.238, %57 ]
  %.033 = phi i64 [ 0, %1 ], [ %.235, %57 ]
  %.0 = phi i64 [ %2, %1 ], [ %.2, %57 ]
  %7 = load volatile i32, ptr @InterruptPending, align 4
  %.not = icmp eq i32 %7, 0
  br i1 %.not, label %9, label %8, !prof !16

8:                                                ; preds = %6
  tail call void @ProcessInterrupts() #11
  br label %9

9:                                                ; preds = %8, %6
  %10 = load i8, ptr @summarize_wal, align 1, !range !4, !noundef !5
  %11 = trunc nuw i8 %10 to i1
  br i1 %11, label %12, label %.thread

12:                                               ; preds = %9
  %13 = load ptr, ptr @MainLWLockArray, align 8
  %14 = getelementptr inbounds nuw i8, ptr %13, i64 6272
  %15 = tail call zeroext i1 @LWLockAcquire(ptr noundef nonnull %14, i32 noundef 0) #11
  %16 = load ptr, ptr @WalSummarizerCtl, align 8
  %17 = getelementptr inbounds nuw i8, ptr %16, i64 8
  %18 = load i64, ptr %17, align 8
  %19 = getelementptr inbounds nuw i8, ptr %16, i64 24
  %20 = load i64, ptr %19, align 8
  %21 = load ptr, ptr @MainLWLockArray, align 8
  %22 = getelementptr inbounds nuw i8, ptr %21, i64 6272
  tail call void @LWLockRelease(ptr noundef nonnull %22) #11
  %.not44 = icmp ult i64 %18, %0
  br i1 %.not44, label %23, label %63

23:                                               ; preds = %12
  %24 = tail call i64 @GetCurrentTimestamp() #11
  %25 = tail call i64 @TimestampDifferenceMilliseconds(i64 noundef %.0, i64 noundef %24) #11
  %26 = icmp sgt i64 %25, 9999
  br i1 %26, label %27, label %57

27:                                               ; preds = %23
  %28 = add i64 %.0, 10000000
  %29 = icmp ugt i64 %20, %.033
  %30 = add i32 %.036, 1
  %.339 = select i1 %29, i32 0, i32 %30
  %.3 = tail call i64 @llvm.umax.i64(i64 %20, i64 %.033)
  %31 = icmp sgt i32 %.339, 5
  br i1 %31, label %32, label %43

32:                                               ; preds = %27
  %33 = tail call zeroext i1 @errstart_cold(i32 noundef 21, ptr noundef null) #14
  tail call void @llvm.assume(i1 %33)
  %34 = tail call i32 @errcode(i32 noundef 325) #11
  %35 = tail call i32 (ptr, ...) @errmsg(ptr noundef nonnull @.str.6) #11
  %36 = lshr i64 %18, 32
  %37 = trunc nuw i64 %36 to i32
  %38 = trunc i64 %18 to i32
  %39 = lshr i64 %20, 32
  %40 = trunc nuw i64 %39 to i32
  %41 = trunc i64 %20 to i32
  %42 = tail call i32 (ptr, ...) @errdetail(ptr noundef nonnull @.str.7, i32 noundef %4, i32 noundef %5, i32 noundef %37, i32 noundef %38, i32 noundef %40, i32 noundef %41) #11
  tail call void @errfinish(ptr noundef nonnull @.str.2, i32 noundef 744, ptr noundef nonnull @__func__.WaitForWalSummarization) #11
  unreachable

43:                                               ; preds = %27
  %44 = tail call i64 @TimestampDifferenceMilliseconds(i64 noundef %2, i64 noundef %24) #11
  %45 = tail call zeroext i1 @errstart(i32 noundef 19, ptr noundef null) #11
  br i1 %45, label %46, label %57

46:                                               ; preds = %43
  %47 = sdiv i64 %44, 1000
  %48 = tail call i32 @errcode(i32 noundef 325) #11
  %49 = tail call i32 (ptr, ptr, i64, ...) @errmsg_plural(ptr noundef nonnull @.str.8, ptr noundef nonnull @.str.9, i64 noundef %47, i32 noundef %4, i32 noundef %5, i64 noundef %47) #11
  %50 = lshr i64 %18, 32
  %51 = trunc nuw i64 %50 to i32
  %52 = trunc i64 %18 to i32
  %53 = lshr i64 %20, 32
  %54 = trunc nuw i64 %53 to i32
  %55 = trunc i64 %20 to i32
  %56 = tail call i32 (ptr, ...) @errdetail(ptr noundef nonnull @.str.10, i32 noundef %51, i32 noundef %52, i32 noundef %54, i32 noundef %55) #11
  tail call void @errfinish(ptr noundef nonnull @.str.2, i32 noundef 762, ptr noundef nonnull @__func__.WaitForWalSummarization) #11
  br label %57

57:                                               ; preds = %23, %46, %43
  %.238 = phi i32 [ %.036, %23 ], [ %.339, %46 ], [ %.339, %43 ]
  %.235 = phi i64 [ %.033, %23 ], [ %.3, %46 ], [ %.3, %43 ]
  %.2 = phi i64 [ %.0, %23 ], [ %28, %46 ], [ %28, %43 ]
  %58 = tail call i64 @TimestampDifferenceMilliseconds(i64 noundef %.2, i64 noundef %24) #11
  %59 = sub i64 10000, %58
  %60 = load ptr, ptr @WalSummarizerCtl, align 8
  %61 = getelementptr inbounds nuw i8, ptr %60, i64 32
  %62 = tail call zeroext i1 @ConditionVariableTimedSleep(ptr noundef nonnull %61, i64 noundef %59, i32 noundef 134217783) #11
  br label %6

63:                                               ; preds = %12
  %64 = tail call zeroext i1 @ConditionVariableCancelSleep() #11
  br label %.thread

.thread:                                          ; preds = %9, %63
  ret void
}